; Function Attrs: mustprogress uwtable
define noundef double @_ZN8QuantLib12Distribution2dxEd(ptr nocapture noundef nonnull readonly align 8 dereferenceable(225) %this, double noundef %x) local_unnamed_addr #0 align 2 {
entry:
  %call = tail call noundef i32 @_ZN8QuantLib12Distribution6locateEd(ptr noundef nonnull align 8 dereferenceable(225) %this, double noundef %x)
  %dx_ = getelementptr inbounds nuw i8, ptr %this, i64 72
  %conv = sext i32 %call to i64
  %0 = load ptr, ptr %dx_, align 8, !tbaa !25
  %add.ptr.i = getelementptr inbounds nuw double, ptr %0, i64 %conv
  %1 = load double, ptr %add.ptr.i, align 8, !tbaa !27
  ret double %1
}